; Function Attrs: mustprogress uwtable
define hidden noundef i32 @_ZN20dependent_expr_state9num_exprsEv(ptr noundef nonnull align 8 dereferenceable(160) %0) local_unnamed_addr #3 align 2 personality ptr @__gxx_personality_v0 {
  %2 = alloca %class.ast_fast_mark, align 8
  call void @llvm.lifetime.start.p0(i64 144, ptr nonnull %2) #19
  %3 = getelementptr inbounds nuw i8, ptr %2, i64 16
  store ptr %3, ptr %2, align 8, !tbaa !3
  %4 = getelementptr inbounds nuw i8, ptr %2, i64 8
  store i32 0, ptr %4, align 8, !tbaa !11
  %5 = getelementptr inbounds nuw i8, ptr %2, i64 12
  store i32 16, ptr %5, align 4, !tbaa !12
  br label %6

6:                                                ; preds = %40, %1
  %.07 = phi i32 [ 0, %1 ], [ %42, %40 ]
  %.0 = phi i32 [ 0, %1 ], [ %41, %40 ]
  %7 = load ptr, ptr %0, align 8, !tbaa !13
  %8 = getelementptr inbounds nuw i8, ptr %7, i64 16
  %9 = load ptr, ptr %8, align 8
  %10 = invoke noundef i32 %9(ptr noundef nonnull align 8 dereferenceable(160) %0)
          to label %11 unwind label %29

11:                                               ; preds = %6
  %12 = icmp ult i32 %.07, %10
  br i1 %12, label %31, label %13

13:                                               ; preds = %11
  %14 = load ptr, ptr %2, align 8, !tbaa !3
  %15 = load i32, ptr %4, align 8, !tbaa !11
  %16 = zext i32 %15 to i64
  %17 = getelementptr inbounds nuw ptr, ptr %14, i64 %16
  %.not8.i.i = icmp eq i32 %15, 0
  br i1 %.not8.i.i, label %.loopexit.i, label %.lr.ph.i.i

.lr.ph.i.i:                                       ; preds = %13, %.lr.ph.i.i
  %.09.i.i = phi ptr [ %22, %.lr.ph.i.i ], [ %14, %13 ]
  %18 = load ptr, ptr %.09.i.i, align 8, !tbaa !15
  %19 = getelementptr inbounds nuw i8, ptr %18, i64 4
  %20 = load i32, ptr %19, align 4
  %21 = and i32 %20, -65537
  store i32 %21, ptr %19, align 4
  %22 = getelementptr inbounds nuw i8, ptr %.09.i.i, i64 8
  %.not.i.i = icmp eq ptr %22, %17
  br i1 %.not.i.i, label %.loopexit.loopexit.i, label %.lr.ph.i.i

.loopexit.loopexit.i:                             ; preds = %.lr.ph.i.i
  %.pre.i = load ptr, ptr %2, align 8, !tbaa !3
  br label %.loopexit.i

.loopexit.i:                                      ; preds = %.loopexit.loopexit.i, %13
  %23 = phi ptr [ %.pre.i, %.loopexit.loopexit.i ], [ %14, %13 ]
  store i32 0, ptr %4, align 8, !tbaa !11
  %.not.i.i.i.i = icmp eq ptr %23, %3
  %24 = icmp eq ptr %23, null
  %or.cond.i.i.i.i = or i1 %.not.i.i.i.i, %24
  br i1 %or.cond.i.i.i.i, label %_ZN13ast_fast_markILj1EED2Ev.exit, label %25

25:                                               ; preds = %.loopexit.i
  invoke void @_ZN6memory10deallocateEPv(ptr noundef nonnull %23)
          to label %_ZN13ast_fast_markILj1EED2Ev.exit unwind label %26

26:                                               ; preds = %25
  %27 = landingpad { ptr, i32 }
          catch ptr null
  %28 = extractvalue { ptr, i32 } %27, 0
  call void @__clang_call_terminate(ptr %28) #20
  unreachable

_ZN13ast_fast_markILj1EED2Ev.exit:                ; preds = %.loopexit.i, %25
  call void @llvm.lifetime.end.p0(i64 144, ptr nonnull %2) #19
  ret i32 %.0

29:                                               ; preds = %36, %31, %6
  %30 = landingpad { ptr, i32 }
          cleanup
  call void @_ZN13ast_fast_markILj1EED2Ev(ptr noundef nonnull align 8 dereferenceable(144) %2) #19
  call void @llvm.lifetime.end.p0(i64 144, ptr nonnull %2) #19
  resume { ptr, i32 } %30

31:                                               ; preds = %11
  %32 = load ptr, ptr %0, align 8, !tbaa !13
  %33 = getelementptr inbounds nuw i8, ptr %32, i64 24
  %34 = load ptr, ptr %33, align 8
  %35 = invoke noundef nonnull align 8 dereferenceable(32) ptr %34(ptr noundef nonnull align 8 dereferenceable(160) %0, i32 noundef %.07)
          to label %36 unwind label %29

36:                                               ; preds = %31
  %37 = getelementptr inbounds nuw i8, ptr %35, i64 8
  %38 = load ptr, ptr %37, align 8, !tbaa !17
  %39 = invoke noundef i32 @_Z13get_num_exprsP4exprR13ast_fast_markILj1EE(ptr noundef %38, ptr noundef nonnull align 8 dereferenceable(144) %2)
          to label %40 unwind label %29

40:                                               ; preds = %36
  %41 = add i32 %39, %.0
  %42 = add nuw i32 %.07, 1
  br label %6, !llvm.loop !23
}